Certificate:
    Data:
        Version: 3 (0x2)
        Serial Number: 4 (0x4)
        Signature Algorithm: md5WithRSAEncryption
        Issuer: C=US, ST=California, L=San Francisco, O=Makewhatis, OU=koji.makewhatis.com, CN=koji.makewhatis.com
        Validity
            Not Before: Jun  7 02:16:53 2013 GMT
            Not After : Jun  5 02:16:53 2023 GMT
        Subject: C=US, ST=California, O=Makewhatis, OU=kojira, CN=kojira
        Subject Public Key Info:
            Public Key Algorithm: rsaEncryption
                Public-Key: (2048 bit)
                Modulus:
                    00:b6:b8:30:da:9d:dd:b9:2f:87:8a:54:e4:9d:cf:
                    0a:1e:43:e0:ee:d1:81:4d:9c:95:dd:7b:6a:27:a8:
                    ee:bc:2c:79:f2:a8:9e:da:9d:66:32:fa:21:4a:0c:
                    c1:a2:06:d8:90:b5:fa:10:ad:45:39:34:b8:a8:ca:
                    7e:54:3c:59:1c:b4:a8:bb:1b:a2:07:8d:91:cd:19:
                    1d:1b:8f:79:9d:d6:7d:7d:81:d8:d6:84:fa:29:52:
                    3f:9c:f0:44:d2:b9:f0:c0:12:a4:3a:94:14:17:7c:
                    58:ff:57:ef:56:df:69:a3:6d:49:de:37:f5:4d:54:
                    01:bd:94:5d:2d:88:25:a4:3e:fd:f3:b3:45:54:cf:
                    fe:56:08:06:2d:d2:ee:77:09:9f:8f:55:55:02:26:
                    61:88:50:56:25:25:68:1e:92:75:3f:9f:d6:ad:db:
                    56:75:67:14:e3:f6:39:e8:32:93:f5:c6:f8:86:59:
                    9d:be:75:05:d7:a0:90:a3:65:e0:67:a3:29:23:08:
                    ca:17:16:aa:c4:47:c1:ac:01:23:87:7f:ba:80:d1:
                    7f:2e:9c:37:d6:8d:5e:b9:3a:37:f5:72:33:1f:71:
                    22:cf:aa:03:b0:cf:b0:01:7f:d6:f2:bd:51:24:98:
                    c5:36:bd:0a:e0:63:f4:24:7f:65:08:0f:b2:4c:64:
                    52:23
                Exponent: 65537 (0x10001)
        X509v3 extensions:
            X509v3 Basic Constraints:
                CA:FALSE
            Netscape Comment:
                OpenSSL Generated Certificate
            X509v3 Subject Key Identifier:
                78:C6:C5:62:4B:11:73:80:3F:FC:FE:31:0F:1B:F9:39:14:20:62:00
            X509v3 Authority Key Identifier:
                keyid:68:16:BB:44:8A:51:FC:29:05:FE:24:9C:1C:B5:B2:84:63:13:CB:73
                DirName:/C=US/ST=California/L=San Francisco/O=Makewhatis/OU=koji.makewhatis.com/CN=koji.makewhatis.com
                serial:87:1B:36:45:22:EA:F0:CD

    Signature Algorithm: md5WithRSAEncryption
        72:a0:f8:a5:d7:69:0a:38:ef:bd:35:8d:57:76:fd:18:8e:b9:
        67:53:ca:fe:e6:c6:2b:95:a2:13:0f:04:3e:2b:a6:bc:95:40:
        3e:77:00:e7:17:c4:2a:11:40:31:45:9b:2a:62:5f:81:18:f5:
        d8:71:80:e1:bb:83:92:40:f7:7a:e5:50:58:51:4d:89:d6:fe:
        94:f3:a2:6a:d0:25:57:82:c4:08:2b:6d:ec:71:a6:31:a5:0f:
        7f:14:1d:55:00:f6:f4:0b:a3:5e:a2:3b:11:52:32:fe:6c:99:
        0d:7b:6f:0d:40:6d:30:af:33:ed:55:3f:3c:ec:27:db:5a:4e:
        4b:94:42:92:e1:a0:10:2f:4d:77:4f:9b:e7:b0:28:1b:e4:50:
        67:f2:41:b6:f0:84:70:a2:e2:5e:75:e5:18:21:06:6c:a9:87:
        a0:6e:6d:43:c6:64:6b:bf:73:80:4a:be:f8:50:14:7b:e7:08:
        1f:04:da:9a:39:d3:78:2d:a5:d8:a4:84:45:a5:14:fb:f5:3e:
        d1:26:b5:0d:f5:d5:23:c7:c2:46:c1:9d:9e:58:99:8e:e7:bd:
        30:bf:b2:87:b4:9c:2c:3c:41:7a:98:e2:f2:a8:b7:0a:b8:37:
        5d:8c:51:8d:9d:e0:c5:0f:95:0c:49:06:6b:4d:3e:92:dc:51:
        a8:40:c6:e2
-----BEGIN CERTIFICATE-----
MIIEgTCCA2mgAwIBAgIBBDANBgkqhkiG9w0BAQQFADCBizELMAkGA1UEBhMCVVMx
EzARBgNVBAgTCkNhbGlmb3JuaWExFjAUBgNVBAcTDVNhbiBGcmFuY2lzY28xEzAR
BgNVBAoTCk1ha2V3aGF0aXMxHDAaBgNVBAsTE2tvamkubWFrZXdoYXRpcy5jb20x
HDAaBgNVBAMTE2tvamkubWFrZXdoYXRpcy5jb20wHhcNMTMwNjA3MDIxNjUzWhcN
MjMwNjA1MDIxNjUzWjBZMQswCQYDVQQGEwJVUzETMBEGA1UECBMKQ2FsaWZvcm5p
YTETMBEGA1UEChMKTWFrZXdoYXRpczEPMA0GA1UECxMGa29qaXJhMQ8wDQYDVQQD
EwZrb2ppcmEwggEiMA0GCSqGSIb3DQEBAQUAA4IBDwAwggEKAoIBAQC2uDDand25
L4eKVOSdzwoeQ+Du0YFNnJXde2onqO68LHnyqJ7anWYy+iFKDMGiBtiQtfoQrUU5
NLioyn5UPFkctKi7G6IHjZHNGR0bj3md1n19gdjWhPopUj+c8ETSufDAEqQ6lBQX
fFj/V+9W32mjbUneN/VNVAG9lF0tiCWkPv3zs0VUz/5WCAYt0u53CZ+PVVUCJmGI
UFYlJWgeknU/n9at21Z1ZxTj9jnoMpP1xviGWZ2+dQXXoJCjZeBnoykjCMoXFqrE
R8GsASOHf7qA0X8unDfWjV65Ojf1cjMfcSLPqgOwz7ABf9byvVEkmMU2vQrgY/Qk
f2UID7JMZFIjAgMBAAGjggEfMIIBGzAJBgNVHRMEAjAAMCwGCWCGSAGG+EIBDQQf
Fh1PcGVuU1NMIEdlbmVyYXRlZCBDZXJ0aWZpY2F0ZTAdBgNVHQ4EFgQUeMbFYksR
c4A//P4xDxv5ORQgYgAwgcAGA1UdIwSBuDCBtYAUaBa7RIpR/CkF/iScHLWyhGMT
y3OhgZGkgY4wgYsxCzAJBgNVBAYTAlVTMRMwEQYDVQQIEwpDYWxpZm9ybmlhMRYw
FAYDVQQHEw1TYW4gRnJhbmNpc2NvMRMwEQYDVQQKEwpNYWtld2hhdGlzMRwwGgYD
VQQLExNrb2ppLm1ha2V3aGF0aXMuY29tMRwwGgYDVQQDExNrb2ppLm1ha2V3aGF0
aXMuY29tggkAhxs2RSLq8M0wDQYJKoZIhvcNAQEEBQADggEBAHKg+KXXaQo47701
jVd2/RiOuWdTyv7mxiuVohMPBD4rpryVQD53AOcXxCoRQDFFmypiX4EY9dhxgOG7
g5JA93rlUFhRTYnW/pTzomrQJVeCxAgrbexxpjGlD38UHVUA9vQLo16iOxFSMv5s
mQ17bw1AbTCvM+1VPzzsJ9taTkuUQpLhoBAvTXdPm+ewKBvkUGfyQbbwhHCi4l51
5RghBmyph6BubUPGZGu/c4BKvvhQFHvnCB8E2po503gtpdikhEWlFPv1PtEmtQ31
1SPHwkbBnZ5YmY7nvTC/soe0nCw8QXqY4vKotwq4N12MUY2d4MUPlQxJBmtNPpLc
UahAxuI=
-----END CERTIFICATE-----
-----BEGIN RSA PRIVATE KEY-----
MIIEpAIBAAKCAQEAtrgw2p3duS+HilTknc8KHkPg7tGBTZyV3XtqJ6juvCx58qie
2p1mMvohSgzBogbYkLX6EK1FOTS4qMp+VDxZHLSouxuiB42RzRkdG495ndZ9fYHY
1oT6KVI/nPBE0rnwwBKkOpQUF3xY/1fvVt9po21J3jf1TVQBvZRdLYglpD7987NF
VM/+VggGLdLudwmfj1VVAiZhiFBWJSVoHpJ1P5/WrdtWdWcU4/Y56DKT9cb4hlmd
vnUF16CQo2XgZ6MpIwjKFxaqxEfBrAEjh3+6gNF/Lpw31o1euTo39XIzH3Eiz6oD
sM+wAX/W8r1RJJjFNr0K4GP0JH9lCA+yTGRSIwIDAQABAoIBAQCEa6i8R3zRIOkS
D8Q/ujSTCo6RhbQ4EytpgG/Gnl+mcHVQr3Ow7DGM8En/6I7MZjm9ZqT8QRbSBqtt
aJN1aOcMLsG6GKSs5KSuB21Y8/onsbLwqpIDpgvGtpzzmA3Iyoj4KoprCbYl7zBw
ncIPK4rbrfDC47sbd65rPoLo5KqjBOo9K/XME9QYfa/xsP9F0Q2DA3p4iPo9smCB
kEq2S9vQKvX2ZN2dgMyAeWhvc2iopsaDmY+fj5TP9M5A3s3DqwLx11PioTdUUc18
m5TWX+JHFNOYstUNgEdAURHgyGuScSMC9zyZokOudkLfwcCEmcULIaUcO71o4giV
PAn/MGKBAoGBAODlUY6bu3a8VKXwZdKtmBVL7RiSAyKtv0HMHUcqh3WA24VG1pY2
MXIMKywCOYqzEdeiLLt7SVOYEYa34DOkFxAluARrd8qEyLe4Cf7UPuUAlbm7Z2fQ
0Gr6zzxwYyRC43xfrw5Oa/J4esSmIi9p8R7M4wpQ13WFBMYIbvfwuBlLAoGBAM/9
kyfePYkLDVIZocuXVkVLHsYu1hcEwXga2WhHyeCXXMFVR/7i/FHQj3VWUj/qA5E0
YIYGHi0kIEZMuq0NaBmyRoWgpAosY2O8dwccGCAwd6ZUxb/DvJTgvT4WDpp3f8eH
8U1X3+VJlKbmQjfQrTQe37xbdLoaVEevh7kMD7uJAoGAGbE4+wDBjtP/G6H2D/Zy
/GPbJ0ZvA0Q0KFEoOxwZs4vQCE7Kbwir52qKeBGc/0Jr1GWblKOGAf3KasiQ3XVu
iRK2DhM08TbwM0TcJ3eZ49GISVqmeo65cK9Mg4wXV2oo0OmhdxHwdRfcdqDAIQiK
Wklv2prXsn5KyFDoVHz0mzcCgYEAuH8Ax/61qxjoqgkeolAOMM1f8QCe3DBVxcpb
S8tSYi0iFEUn5gtHMvPELZtyvktA+s7xSDGpFvXSw0lQ1izsSM8BC4vhtzyEtXX6
R44+QF9940eTWnWwlId+ltJOBes2p7II9EiczPEmMZ5S4tvyqCcy5AxkUKkGVch4
pkbytbECgYA1lnIeUNNSNmshtWBpAp4thS5SlfqcmS1ge9vC5kOss5LRUo26ttF9
maaXWOdnz3vbYNo+lETq3CxPUVB0PrLms/xf+I99zDIa9jIdvDGe4MnR+QkZ7Mm9
Cg21A2y9tEH62x0aVpW7CcVi9GSmFjISswShCw/bPNxeV4Hd5JRx1w==
-----END RSA PRIVATE KEY-----
