Certificate:
    Data:
        Version: 3 (0x2)
        Serial Number: 1 (0x1)
        Signature Algorithm: md5WithRSAEncryption
        Issuer: C=US, ST=California, L=San Francisco, O=Makewhatis, OU=koji.makewhatis.com, CN=koji.makewhatis.com
        Validity
            Not Before: Jun  7 02:15:13 2013 GMT
            Not After : Jun  5 02:15:13 2023 GMT
        Subject: C=US, ST=California, O=Makewhatis, OU=kojiadmin, CN=kojiadmin
        Subject Public Key Info:
            Public Key Algorithm: rsaEncryption
                Public-Key: (2048 bit)
                Modulus:
                    00:c9:a0:d4:7d:61:9e:eb:c1:e8:e0:0c:b8:21:f3:
                    22:db:2c:7d:73:a1:dc:2d:c8:2d:26:1c:6f:f1:21:
                    54:ef:4a:28:b5:5e:20:f7:0d:01:01:0d:d3:e6:f8:
                    8c:bd:2a:8c:23:ff:73:55:75:fe:09:29:a3:b3:14:
                    55:e4:a0:14:eb:f7:0f:bc:19:c1:2e:2e:65:76:2e:
                    1f:70:c7:6d:30:2a:d3:ed:a6:ee:29:f9:f0:b2:ba:
                    f9:64:34:09:50:0a:79:92:2d:a7:d1:86:ce:f9:d5:
                    03:14:7c:6f:c0:8a:d0:48:6a:37:19:fc:47:91:ea:
                    d8:7c:a7:ac:68:2e:bd:6f:8e:fa:07:65:8a:eb:3b:
                    78:55:87:96:75:ef:72:f1:bc:58:2a:75:3b:b4:ff:
                    93:69:5a:b9:98:93:5f:ba:5e:e4:92:00:06:a6:ab:
                    45:a0:2d:7d:27:41:db:f0:1c:40:c6:f8:10:78:cb:
                    65:4b:cd:b2:36:f8:5a:f7:61:82:21:b4:79:bc:ee:
                    7a:be:27:9d:82:4c:af:8a:d3:8b:13:19:b4:7f:ec:
                    49:4f:11:b3:c4:14:9a:85:b1:fd:46:08:13:a4:54:
                    56:58:ac:1d:bb:d6:05:08:8a:b3:b8:e5:6f:0b:d7:
                    99:31:85:5a:eb:d3:85:b1:50:6c:15:8f:43:3a:68:
                    e5:b9
                Exponent: 65537 (0x10001)
        X509v3 extensions:
            X509v3 Basic Constraints:
                CA:FALSE
            Netscape Comment:
                OpenSSL Generated Certificate
            X509v3 Subject Key Identifier:
                CC:E1:E3:0C:14:4F:46:34:85:35:A6:4C:4A:33:68:BD:97:B1:75:6C
            X509v3 Authority Key Identifier:
                keyid:68:16:BB:44:8A:51:FC:29:05:FE:24:9C:1C:B5:B2:84:63:13:CB:73
                DirName:/C=US/ST=California/L=San Francisco/O=Makewhatis/OU=koji.makewhatis.com/CN=koji.makewhatis.com
                serial:87:1B:36:45:22:EA:F0:CD

    Signature Algorithm: md5WithRSAEncryption
        a5:2b:d1:dc:9d:c4:93:08:2f:d6:ea:ec:83:0e:26:60:58:95:
        f6:dd:2d:b9:29:fe:7a:cf:53:ae:a2:88:a1:fb:b7:65:7b:ed:
        96:cf:df:d5:7c:b1:7d:97:ff:89:3f:d1:8a:fc:93:75:35:41:
        68:75:8a:ae:be:d8:69:4a:62:74:08:49:77:41:32:dc:d8:b2:
        6a:f5:32:43:b1:e3:e3:3b:e1:f6:be:8b:b5:de:d7:fb:03:5b:
        a5:30:ec:0e:01:94:36:9d:80:06:47:c1:49:c8:1d:97:1a:63:
        8d:21:1d:8e:12:b1:66:0f:3e:d8:bf:89:00:41:35:77:6e:53:
        71:6c:d3:98:3d:31:67:0b:06:ae:f6:5d:17:b6:3f:14:9e:5b:
        a6:d7:ed:fd:83:56:ac:70:6a:13:74:1c:ce:2f:de:f5:c8:3d:
        c4:9c:22:8b:dd:c3:25:48:f9:8a:90:2f:31:44:60:6d:67:04:
        60:ee:42:4c:cc:db:0d:c1:f0:c8:4d:a0:c2:b9:d1:44:8a:22:
        f4:5d:b2:b8:ba:b2:44:00:ed:f9:03:6c:f6:c4:77:37:a2:65:
        ea:30:e2:60:83:60:64:c1:d2:b5:08:4a:fd:0c:52:85:0c:2d:
        b7:55:7c:06:34:6f:ca:ee:ee:c5:57:1c:95:3a:0c:6f:6f:70:
        0d:15:9d:0d
-----BEGIN CERTIFICATE-----
MIIEhzCCA2+gAwIBAgIBATANBgkqhkiG9w0BAQQFADCBizELMAkGA1UEBhMCVVMx
EzARBgNVBAgTCkNhbGlmb3JuaWExFjAUBgNVBAcTDVNhbiBGcmFuY2lzY28xEzAR
BgNVBAoTCk1ha2V3aGF0aXMxHDAaBgNVBAsTE2tvamkubWFrZXdoYXRpcy5jb20x
HDAaBgNVBAMTE2tvamkubWFrZXdoYXRpcy5jb20wHhcNMTMwNjA3MDIxNTEzWhcN
MjMwNjA1MDIxNTEzWjBfMQswCQYDVQQGEwJVUzETMBEGA1UECBMKQ2FsaWZvcm5p
YTETMBEGA1UEChMKTWFrZXdoYXRpczESMBAGA1UECxMJa29qaWFkbWluMRIwEAYD
VQQDEwlrb2ppYWRtaW4wggEiMA0GCSqGSIb3DQEBAQUAA4IBDwAwggEKAoIBAQDJ
oNR9YZ7rwejgDLgh8yLbLH1zodwtyC0mHG/xIVTvSii1XiD3DQEBDdPm+Iy9Kowj
/3NVdf4JKaOzFFXkoBTr9w+8GcEuLmV2Lh9wx20wKtPtpu4p+fCyuvlkNAlQCnmS
LafRhs751QMUfG/AitBIajcZ/EeR6th8p6xoLr1vjvoHZYrrO3hVh5Z173LxvFgq
dTu0/5NpWrmYk1+6XuSSAAamq0WgLX0nQdvwHEDG+BB4y2VLzbI2+Fr3YYIhtHm8
7nq+J52CTK+K04sTGbR/7ElPEbPEFJqFsf1GCBOkVFZYrB271gUIirO45W8L15kx
hVrr04WxUGwVj0M6aOW5AgMBAAGjggEfMIIBGzAJBgNVHRMEAjAAMCwGCWCGSAGG
+EIBDQQfFh1PcGVuU1NMIEdlbmVyYXRlZCBDZXJ0aWZpY2F0ZTAdBgNVHQ4EFgQU
zOHjDBRPRjSFNaZMSjNovZexdWwwgcAGA1UdIwSBuDCBtYAUaBa7RIpR/CkF/iSc
HLWyhGMTy3OhgZGkgY4wgYsxCzAJBgNVBAYTAlVTMRMwEQYDVQQIEwpDYWxpZm9y
bmlhMRYwFAYDVQQHEw1TYW4gRnJhbmNpc2NvMRMwEQYDVQQKEwpNYWtld2hhdGlz
MRwwGgYDVQQLExNrb2ppLm1ha2V3aGF0aXMuY29tMRwwGgYDVQQDExNrb2ppLm1h
a2V3aGF0aXMuY29tggkAhxs2RSLq8M0wDQYJKoZIhvcNAQEEBQADggEBAKUr0dyd
xJMIL9bq7IMOJmBYlfbdLbkp/nrPU66iiKH7t2V77ZbP39V8sX2X/4k/0Yr8k3U1
QWh1iq6+2GlKYnQISXdBMtzYsmr1MkOx4+M74fa+i7Xe1/sDW6Uw7A4BlDadgAZH
wUnIHZcaY40hHY4SsWYPPti/iQBBNXduU3Fs05g9MWcLBq72XRe2PxSeW6bX7f2D
VqxwahN0HM4v3vXIPcScIovdwyVI+YqQLzFEYG1nBGDuQkzM2w3B8MhNoMK50USK
IvRdsri6skQA7fkDbPbEdzeiZeow4mCDYGTB0rUISv0MUoUMLbdVfAY0b8ru7sVX
HJU6DG9vcA0VnQ0=
-----END CERTIFICATE-----
-----BEGIN RSA PRIVATE KEY-----
MIIEogIBAAKCAQEAyaDUfWGe68Ho4Ay4IfMi2yx9c6HcLcgtJhxv8SFU70ootV4g
9w0BAQ3T5viMvSqMI/9zVXX+CSmjsxRV5KAU6/cPvBnBLi5ldi4fcMdtMCrT7abu
Kfnwsrr5ZDQJUAp5ki2n0YbO+dUDFHxvwIrQSGo3GfxHkerYfKesaC69b476B2WK
6zt4VYeWde9y8bxYKnU7tP+TaVq5mJNful7kkgAGpqtFoC19J0Hb8BxAxvgQeMtl
S82yNvha92GCIbR5vO56viedgkyvitOLExm0f+xJTxGzxBSahbH9RggTpFRWWKwd
u9YFCIqzuOVvC9eZMYVa69OFsVBsFY9DOmjluQIDAQABAoIBAExCMvv09xlt7rkG
toHIpq9EpXIdjtwV8NWQPdpyY+BZKQpnvooR9gZDB5k8+mX1eKmIzUNObDVk9VAe
6dmdniwc9muLRiBEVgWbrjKGisqD+EHTOBLSQHIo+3glojwOqipacDV0CkY9hXuz
EMU++0XYPlzqqNsMerKy7Cc/PlC5lAV1Kam3ERmUdgcApDkagnPe4UNv5eNQpKgu
8UmzW2dsl8iX6gmy/v5748wJBJCWQcnOFE6FZ4n/J6bAVFlsDE+aJwNX5wtoRFKQ
9ijqhYzHwlHFmd/kZQOP9TlqeHTQxWfdQnhjhXXkmR2vlgAM7jT8jSRuvj0ULKLd
5DNLObECgYEA49Vecs5IlKZ9exEVeyP3VHIjwBTVOwzRF50ylrWXVGkUIzIlc0SN
SSsxJA+Psztj0MNyEomQNpTYDtRkqqb7cT3OSkV3WCwDNUuhtHDt1c5K3LBk8zGn
caXYE0C7VYdhztHajnMHlGgTaaNoAn/UHXuIxYOMIYH1xLbPwnPQI5UCgYEA4o4Z
kdm0vMgmwCbTLh8QYerurxY2dN/3WOnF4Y/Jpfbpz3f0au1SjM+Nh3h5yoP1eQSO
QMrLc3BmaE/6AsQ+YXSI5gWqo1l+7X0D3w/4uIoE/taM0lytPu96T2LX9HoH/7+N
wMJWBF/060UgL6WA+d5CDGLRCTJ6rxBk+jsncJUCgYAdrZitCdQIkRt9YX9T2B6K
wIeJqO0R0RyXn+GMIkGBPGLkJs8cEcz5wAeZs/E7Hrxk4GDGq2a+xWrTm7U1SaUt
Xii2IhBmyuzsD1sUHzXMCSBVWSD9UPWH51ubPm5ouMbz4wA+WBufqGMG+sM8uBwQ
bxwk5nrljoFOS6YKpX1ydQKBgHY+TjAmXUOOf1MYsG3I/sbsVCkDweZcIn/Ae2wP
nOJHLZ7/74yDUut1RFvpUD+Xgd3ot8ovTeJxTrGw1D7vZ9N7fBv55yachjezYPri
HiFKv/K1zgfZIP7RBJg8cZQCwPwFYRmzFCvyXSUSDgtwKRHAo95NEObo9sk6GEnV
5+7FAoGANh4dNRlHF+SAuuLAeU6c/FM1tlKzCcDDtTUxBFvCiC5+zP+O/yLNbCCe
zKzsPaOfrvL5TOmJDjPk5f0I94EMw+je99QWuPlpVFp3hPQ6SyQ5fqnudb0OCvuQ
95LEd8hzUlk0hr6ilWBVyMyO6Fb8cNTyHgkDzwb2e5bn8ng9iGM=
-----END RSA PRIVATE KEY-----
