Certificate:
    Data:
        Version: 3 (0x2)
        Serial Number: 2 (0x2)
        Signature Algorithm: md5WithRSAEncryption
        Issuer: C=US, ST=California, L=San Francisco, O=Makewhatis, OU=koji.makewhatis.com, CN=koji.makewhatis.com
        Validity
            Not Before: Jun  7 02:16:09 2013 GMT
            Not After : Jun  5 02:16:09 2023 GMT
        Subject: C=US, ST=California, O=Makewhatis, OU=kojihub, CN=kojihub
        Subject Public Key Info:
            Public Key Algorithm: rsaEncryption
                Public-Key: (2048 bit)
                Modulus:
                    00:b6:12:2f:48:7f:fe:d7:20:74:92:09:46:c1:66:
                    4e:89:89:ec:fe:66:58:ad:04:03:9f:df:a4:7e:ac:
                    bf:26:a7:4e:8d:4c:00:70:1e:ce:f3:c9:ee:37:cf:
                    cb:8a:b3:bf:aa:b9:9e:88:c1:c1:c2:04:2d:96:cd:
                    68:09:22:e2:d0:71:1a:a2:b4:ca:23:36:7d:7c:e0:
                    49:7a:e6:69:2d:42:6a:22:73:95:8c:fd:dd:8a:73:
                    fb:cc:6a:b3:d9:c0:c6:1a:b6:08:1c:ca:3f:05:a2:
                    02:41:7e:8b:c9:51:e3:dd:f6:19:f4:e1:d4:05:b1:
                    c7:f1:2e:a4:23:33:e1:f8:e1:20:b9:4f:fd:c7:d4:
                    c4:0b:5c:69:c9:25:00:8b:36:3b:12:d7:a1:0c:b2:
                    08:55:25:cc:5f:86:65:8f:54:52:8e:2b:93:c7:59:
                    40:cd:db:b2:1d:4c:22:97:1d:55:08:b2:c8:50:ed:
                    ce:0b:c5:34:e8:89:ac:fc:96:84:31:59:8f:5c:4b:
                    c0:81:e8:44:5d:f3:db:ff:1f:f5:d5:06:3b:49:96:
                    43:77:f3:e8:56:07:4c:bb:7a:04:22:9b:c4:4d:c8:
                    6e:2b:df:ba:9f:40:06:a8:f6:f1:16:57:02:c0:da:
                    89:42:54:8d:12:8b:bd:d7:a0:06:b8:74:7e:0b:60:
                    3b:bb
                Exponent: 65537 (0x10001)
        X509v3 extensions:
            X509v3 Basic Constraints:
                CA:FALSE
            Netscape Comment:
                OpenSSL Generated Certificate
            X509v3 Subject Key Identifier:
                E9:44:59:A4:8E:5C:12:8B:EF:D4:33:6B:AC:ED:CD:B9:FC:80:32:B6
            X509v3 Authority Key Identifier:
                keyid:68:16:BB:44:8A:51:FC:29:05:FE:24:9C:1C:B5:B2:84:63:13:CB:73
                DirName:/C=US/ST=California/L=San Francisco/O=Makewhatis/OU=koji.makewhatis.com/CN=koji.makewhatis.com
                serial:87:1B:36:45:22:EA:F0:CD

    Signature Algorithm: md5WithRSAEncryption
        3c:a8:2c:f9:8c:92:3a:a8:97:6b:7d:1e:af:41:dc:1b:9b:fe:
        af:2f:01:0d:01:3f:5f:6a:16:48:24:6b:4a:98:84:23:a2:8c:
        f6:9a:f2:78:18:61:67:fb:c5:68:e3:eb:61:48:2c:85:24:18:
        54:4d:ea:08:3a:01:16:7d:f6:f2:be:67:fd:87:25:9a:d3:28:
        dd:3c:c2:d6:fb:fa:0a:af:55:49:a9:a0:ca:09:1e:08:a4:76:
        3d:82:85:50:24:54:96:09:2a:b1:b7:4f:a6:a5:aa:34:09:ac:
        8f:5f:74:c6:e2:79:68:1b:fa:f0:f8:8d:97:11:c8:a1:0e:7f:
        9f:b7:31:5a:33:13:a5:12:d7:38:aa:7a:1f:76:3a:88:80:e2:
        e2:26:ba:45:b6:9d:77:bb:b3:76:db:ee:c9:9c:5a:8c:6f:b4:
        d1:e1:19:43:fd:81:63:f8:e2:3c:ca:b1:42:d7:b2:a8:47:81:
        25:41:7f:57:ea:27:7d:15:c6:16:1c:28:cf:17:66:ba:fa:e4:
        18:0e:15:a9:7c:26:cc:ff:72:fb:0c:f8:b9:b5:68:0f:04:c4:
        86:3f:25:e7:71:f2:11:be:bc:ac:71:59:f0:bb:ab:c9:23:32:
        6d:1a:50:e9:40:f0:9e:a3:74:0f:14:4f:18:75:5a:9e:0a:a5:
        ff:b1:d5:c4
-----BEGIN CERTIFICATE-----
MIIEgzCCA2ugAwIBAgIBAjANBgkqhkiG9w0BAQQFADCBizELMAkGA1UEBhMCVVMx
EzARBgNVBAgTCkNhbGlmb3JuaWExFjAUBgNVBAcTDVNhbiBGcmFuY2lzY28xEzAR
BgNVBAoTCk1ha2V3aGF0aXMxHDAaBgNVBAsTE2tvamkubWFrZXdoYXRpcy5jb20x
HDAaBgNVBAMTE2tvamkubWFrZXdoYXRpcy5jb20wHhcNMTMwNjA3MDIxNjA5WhcN
MjMwNjA1MDIxNjA5WjBbMQswCQYDVQQGEwJVUzETMBEGA1UECBMKQ2FsaWZvcm5p
YTETMBEGA1UEChMKTWFrZXdoYXRpczEQMA4GA1UECxMHa29qaWh1YjEQMA4GA1UE
AxMHa29qaWh1YjCCASIwDQYJKoZIhvcNAQEBBQADggEPADCCAQoCggEBALYSL0h/
/tcgdJIJRsFmTomJ7P5mWK0EA5/fpH6svyanTo1MAHAezvPJ7jfPy4qzv6q5nojB
wcIELZbNaAki4tBxGqK0yiM2fXzgSXrmaS1CaiJzlYz93Ypz+8xqs9nAxhq2CBzK
PwWiAkF+i8lR4932GfTh1AWxx/EupCMz4fjhILlP/cfUxAtcacklAIs2OxLXoQyy
CFUlzF+GZY9UUo4rk8dZQM3bsh1MIpcdVQiyyFDtzgvFNOiJrPyWhDFZj1xLwIHo
RF3z2/8f9dUGO0mWQ3fz6FYHTLt6BCKbxE3Ibivfup9ABqj28RZXAsDaiUJUjRKL
vdegBrh0fgtgO7sCAwEAAaOCAR8wggEbMAkGA1UdEwQCMAAwLAYJYIZIAYb4QgEN
BB8WHU9wZW5TU0wgR2VuZXJhdGVkIENlcnRpZmljYXRlMB0GA1UdDgQWBBTpRFmk
jlwSi+/UM2us7c25/IAytjCBwAYDVR0jBIG4MIG1gBRoFrtEilH8KQX+JJwctbKE
YxPLc6GBkaSBjjCBizELMAkGA1UEBhMCVVMxEzARBgNVBAgTCkNhbGlmb3JuaWEx
FjAUBgNVBAcTDVNhbiBGcmFuY2lzY28xEzARBgNVBAoTCk1ha2V3aGF0aXMxHDAa
BgNVBAsTE2tvamkubWFrZXdoYXRpcy5jb20xHDAaBgNVBAMTE2tvamkubWFrZXdo
YXRpcy5jb22CCQCHGzZFIurwzTANBgkqhkiG9w0BAQQFAAOCAQEAPKgs+YySOqiX
a30er0HcG5v+ry8BDQE/X2oWSCRrSpiEI6KM9pryeBhhZ/vFaOPrYUgshSQYVE3q
CDoBFn328r5n/YclmtMo3TzC1vv6Cq9VSamgygkeCKR2PYKFUCRUlgkqsbdPpqWq
NAmsj190xuJ5aBv68PiNlxHIoQ5/n7cxWjMTpRLXOKp6H3Y6iIDi4ia6Rbadd7uz
dtvuyZxajG+00eEZQ/2BY/jiPMqxQteyqEeBJUF/V+onfRXGFhwozxdmuvrkGA4V
qXwmzP9y+wz4ubVoDwTEhj8l53HyEb68rHFZ8LurySMybRpQ6UDwnqN0DxRPGHVa
ngql/7HVxA==
-----END CERTIFICATE-----
-----BEGIN RSA PRIVATE KEY-----
MIIEpAIBAAKCAQEAthIvSH/+1yB0kglGwWZOiYns/mZYrQQDn9+kfqy/JqdOjUwA
cB7O88nuN8/LirO/qrmeiMHBwgQtls1oCSLi0HEaorTKIzZ9fOBJeuZpLUJqInOV
jP3dinP7zGqz2cDGGrYIHMo/BaICQX6LyVHj3fYZ9OHUBbHH8S6kIzPh+OEguU/9
x9TEC1xpySUAizY7EtehDLIIVSXMX4Zlj1RSjiuTx1lAzduyHUwilx1VCLLIUO3O
C8U06Ims/JaEMVmPXEvAgehEXfPb/x/11QY7SZZDd/PoVgdMu3oEIpvETchuK9+6
n0AGqPbxFlcCwNqJQlSNEou916AGuHR+C2A7uwIDAQABAoIBAQCULMh+YGyt96Pn
FdWXoANau/08LV8Nr66jdgcRcNVAR/kN1USl+uzCSxysH1ivUQozj00OT2G43F2d
1R1OEi41JVdgA3JepgIKlx41/z6prtthnl+flxutiibqfgxQsyqGoo6Hn7EajHb5
hluNRDAGfDszqHY9DCqEhkjevWKygGUg12UNVZXcIdPMcj3JEqFCgs+8og4JKhrY
1qoE6TNVYqtcKeWn3hR+L9/TWkIu1bmaYPw+9lAHnao/zkfZ1Ojbz5BNPZZZ6+9E
/e3TzSjlFZD3Ajv7IkrXhoyGtUIZKios8Z1SAY8aFJxvhIUjyD/MrR0AkPChV9ue
HJp1tBMBAoGBAOhCrh5DQ5UFKnS6Pa0YmN/kaqPiOa8OeZUa8S10zRU/3rFRISdH
sumjrrj/q6iQ7+GUZ6+j1gb21+KYhJ8Bm3dTlq8ixiHYswS/B5mQH2nB9IjqhEX3
dS9pM0D1Ng4FMQNTlsuMc/5NaOZZ1JRef2kfRp0kykGq4kMLugw7xCpLAoGBAMiu
P9pZjHIFRmx8ClWVBHGemvqiYPOVHovObLveYaWGaNW4H5fOj2Z2cf5oNFNNXsug
exrpeiWfJlHfGEVfhnsFU4RZzl8Tn1UxDnqEvkk0swRojv27KCVC1W4jhTulzTJx
PqHgO2uPkQF2bayCxsbMoptFqKyVc1M3a810xE5RAoGAKkTQWVOWfg1Vn66xQMpE
MCLqwW6PXut8dwVTNRmXpTFdftmr9fEXf2u5hZOKEwBll6EhiZaAgf30ZhmpsSJi
v8Gnn7HtawV79vYpFOpkvSN+NFixv+X8Hqe/myfFMaICPH++5sZl6bb+y0U36dSU
zXXSrRCf+nl1+gutTUKnPacCgYAW63fVe1bECwAxEbWocp2QUHoI2BTUnRphA1F9
33ctjX1Zs27AStIr9KkuUj5vqS2Dei+1MidGNrgMr7s46SEV2dThD9S3HSmcdD7g
FVsaR0+O2FZEemSqZMi1jI8B8fzOnwp1OIPw0/POw/TguAr115dWvoz2MRd70J+a
VpS5EQKBgQCIpC3AS2DH/Cij1eMKYoqKGtcK2bpU0ymCxBifEgEHBLeRv6fJLtV2
JzD9YwedNlEE9z+EyzaU0BdvtfNts/kC/dp2EzISAUf7L8MoMI7hbjTO2guuI4b+
AsxKo4yZgdMH6o7nutjE7iK/0z2GlmZdicvarIy+um6r0EUyEN2neQ==
-----END RSA PRIVATE KEY-----
