Certificate:
    Data:
        Version: 3 (0x2)
        Serial Number: 3 (0x3)
        Signature Algorithm: md5WithRSAEncryption
        Issuer: C=US, ST=California, L=San Francisco, O=Makewhatis, OU=koji.makewhatis.com, CN=koji.makewhatis.com
        Validity
            Not Before: Jun  7 02:16:37 2013 GMT
            Not After : Jun  5 02:16:37 2023 GMT
        Subject: C=US, ST=California, O=Makewhatis, OU=kojiweb, CN=kojiweb
        Subject Public Key Info:
            Public Key Algorithm: rsaEncryption
                Public-Key: (2048 bit)
                Modulus:
                    00:b6:82:6e:c8:a2:a7:85:cc:39:32:9c:4f:c3:07:
                    03:7f:9b:88:b5:98:06:ef:18:36:bf:e4:ce:a1:13:
                    55:a3:6e:66:0d:ed:82:98:e6:08:5f:54:ca:4f:a1:
                    c2:2c:c2:d0:50:b4:46:50:24:b0:73:8e:cc:06:34:
                    77:91:9e:16:eb:30:6f:ad:1a:24:8e:0a:ea:84:ff:
                    72:d7:d2:53:cb:04:31:6f:cf:57:57:1e:ec:f7:b7:
                    88:b1:d2:18:c3:ee:7d:70:1d:85:9b:5f:a8:30:11:
                    34:e7:35:ee:18:fd:a1:c1:ca:58:d3:65:8f:b7:d7:
                    4c:a3:8f:81:98:b2:98:88:7b:77:1e:84:9d:85:38:
                    68:07:21:74:b8:97:a5:b2:d0:6d:45:dc:e4:a1:5a:
                    36:9c:eb:81:20:2d:05:90:3e:d7:68:3d:3e:e6:16:
                    08:bd:f6:44:82:15:2b:1a:f5:d0:73:2d:48:0e:78:
                    8d:8e:6b:85:fe:39:df:19:e7:a8:7f:b8:f2:22:7d:
                    bc:e0:fa:a5:81:db:38:73:c1:2d:27:9f:1d:2c:f6:
                    cd:8a:1b:da:f2:96:35:b0:41:e9:c9:43:77:03:e8:
                    88:84:8b:d5:72:83:a4:9e:b0:dc:e6:e8:d7:d9:c7:
                    ae:0b:39:12:b0:61:d1:11:93:eb:fc:3a:d5:d9:56:
                    d8:71
                Exponent: 65537 (0x10001)
        X509v3 extensions:
            X509v3 Basic Constraints:
                CA:FALSE
            Netscape Comment:
                OpenSSL Generated Certificate
            X509v3 Subject Key Identifier:
                BC:3C:B3:F0:9B:E4:BB:74:34:45:9D:28:81:50:00:02:82:88:A2:58
            X509v3 Authority Key Identifier:
                keyid:68:16:BB:44:8A:51:FC:29:05:FE:24:9C:1C:B5:B2:84:63:13:CB:73
                DirName:/C=US/ST=California/L=San Francisco/O=Makewhatis/OU=koji.makewhatis.com/CN=koji.makewhatis.com
                serial:87:1B:36:45:22:EA:F0:CD

    Signature Algorithm: md5WithRSAEncryption
        14:ee:04:16:c0:2d:ac:ee:f2:69:2e:71:07:86:e5:cc:f8:76:
        0f:94:40:e9:6b:03:d0:99:0b:4e:19:f9:ee:bf:e3:b6:4d:fb:
        d3:a8:87:7e:51:83:e1:a1:dd:87:a2:3f:5d:d2:82:8a:98:c2:
        2a:2a:9a:46:2f:58:7a:41:b2:b3:94:aa:0c:f9:7e:11:a8:35:
        c1:89:68:02:67:b2:01:7a:d2:94:0d:01:e3:52:ce:00:dc:f7:
        2a:85:0e:e9:5d:83:0e:f6:69:b7:1c:89:0d:b6:1a:ac:89:0c:
        ac:32:36:90:96:f6:23:e3:70:79:ba:66:a8:47:8f:a4:47:7e:
        ee:04:a0:63:9a:4f:5d:ab:ac:4c:59:72:bc:b3:bd:e1:52:dd:
        b7:e6:4d:5d:b4:a7:15:d5:d8:73:f8:20:59:3c:69:b0:10:b1:
        7a:d1:d9:fb:c3:47:44:4a:d6:5f:52:5a:f0:27:e1:5e:78:24:
        4f:a2:8f:fe:bd:c3:54:5b:6b:80:ba:7c:36:5b:49:c9:4c:65:
        1f:5d:22:4f:5f:e7:27:16:7d:24:17:23:62:21:c1:34:7b:73:
        23:d3:4a:9b:ce:45:f8:92:63:1b:d6:48:55:88:a9:92:a2:7b:
        00:cc:7d:36:d6:e2:5a:74:14:db:43:72:fb:99:be:0e:84:42:
        d8:de:8c:04
-----BEGIN CERTIFICATE-----
MIIEgzCCA2ugAwIBAgIBAzANBgkqhkiG9w0BAQQFADCBizELMAkGA1UEBhMCVVMx
EzARBgNVBAgTCkNhbGlmb3JuaWExFjAUBgNVBAcTDVNhbiBGcmFuY2lzY28xEzAR
BgNVBAoTCk1ha2V3aGF0aXMxHDAaBgNVBAsTE2tvamkubWFrZXdoYXRpcy5jb20x
HDAaBgNVBAMTE2tvamkubWFrZXdoYXRpcy5jb20wHhcNMTMwNjA3MDIxNjM3WhcN
MjMwNjA1MDIxNjM3WjBbMQswCQYDVQQGEwJVUzETMBEGA1UECBMKQ2FsaWZvcm5p
YTETMBEGA1UEChMKTWFrZXdoYXRpczEQMA4GA1UECxMHa29qaXdlYjEQMA4GA1UE
AxMHa29qaXdlYjCCASIwDQYJKoZIhvcNAQEBBQADggEPADCCAQoCggEBALaCbsii
p4XMOTKcT8MHA3+biLWYBu8YNr/kzqETVaNuZg3tgpjmCF9Uyk+hwizC0FC0RlAk
sHOOzAY0d5GeFuswb60aJI4K6oT/ctfSU8sEMW/PV1ce7Pe3iLHSGMPufXAdhZtf
qDARNOc17hj9ocHKWNNlj7fXTKOPgZiymIh7dx6EnYU4aAchdLiXpbLQbUXc5KFa
NpzrgSAtBZA+12g9PuYWCL32RIIVKxr10HMtSA54jY5rhf453xnnqH+48iJ9vOD6
pYHbOHPBLSefHSz2zYob2vKWNbBB6clDdwPoiISL1XKDpJ6w3Obo19nHrgs5ErBh
0RGT6/w61dlW2HECAwEAAaOCAR8wggEbMAkGA1UdEwQCMAAwLAYJYIZIAYb4QgEN
BB8WHU9wZW5TU0wgR2VuZXJhdGVkIENlcnRpZmljYXRlMB0GA1UdDgQWBBS8PLPw
m+S7dDRFnSiBUAACgoiiWDCBwAYDVR0jBIG4MIG1gBRoFrtEilH8KQX+JJwctbKE
YxPLc6GBkaSBjjCBizELMAkGA1UEBhMCVVMxEzARBgNVBAgTCkNhbGlmb3JuaWEx
FjAUBgNVBAcTDVNhbiBGcmFuY2lzY28xEzARBgNVBAoTCk1ha2V3aGF0aXMxHDAa
BgNVBAsTE2tvamkubWFrZXdoYXRpcy5jb20xHDAaBgNVBAMTE2tvamkubWFrZXdo
YXRpcy5jb22CCQCHGzZFIurwzTANBgkqhkiG9w0BAQQFAAOCAQEAFO4EFsAtrO7y
aS5xB4blzPh2D5RA6WsD0JkLThn57r/jtk3706iHflGD4aHdh6I/XdKCipjCKiqa
Ri9YekGys5SqDPl+Eag1wYloAmeyAXrSlA0B41LOANz3KoUO6V2DDvZptxyJDbYa
rIkMrDI2kJb2I+NwebpmqEePpEd+7gSgY5pPXausTFlyvLO94VLdt+ZNXbSnFdXY
c/ggWTxpsBCxetHZ+8NHRErWX1Ja8CfhXngkT6KP/r3DVFtrgLp8NltJyUxlH10i
T1/nJxZ9JBcjYiHBNHtzI9NKm85F+JJjG9ZIVYipkqJ7AMx9NtbiWnQU20Ny+5m+
DoRC2N6MBA==
-----END CERTIFICATE-----
-----BEGIN RSA PRIVATE KEY-----
MIIEpAIBAAKCAQEAtoJuyKKnhcw5MpxPwwcDf5uItZgG7xg2v+TOoRNVo25mDe2C
mOYIX1TKT6HCLMLQULRGUCSwc47MBjR3kZ4W6zBvrRokjgrqhP9y19JTywQxb89X
Vx7s97eIsdIYw+59cB2Fm1+oMBE05zXuGP2hwcpY02WPt9dMo4+BmLKYiHt3HoSd
hThoByF0uJelstBtRdzkoVo2nOuBIC0FkD7XaD0+5hYIvfZEghUrGvXQcy1IDniN
jmuF/jnfGeeof7jyIn284Pqlgds4c8EtJ58dLPbNihva8pY1sEHpyUN3A+iIhIvV
coOknrDc5ujX2ceuCzkSsGHREZPr/DrV2VbYcQIDAQABAoIBAQCsQ5yRX4VDcqmi
LYvThzE0Jvf4fxA8aNx0b2DhBEDWy4MkLkQQUT8hzARQ+VsvqIm7Qw0C5D5wNB46
1RbuqQr03njqKDzMnV0SP5KERw+0Fbcb09aacqQ0hFVPkgCyHs7jHdpX9wfmprcK
bQrZJ7ygD3+buMbYPS0nTHKEUD5MwrQCCTvhs3ZwcVr0eYAm+UYRXbdnv6AwCWkH
Io3tX+h1gh1/f4WJo3Qpl/ohZefYZ3Ylrc8p+NTUhCaJPZwOiQ2+91Vrk65FuKmL
uQB9w4KXTisWcmpy07pCO9bpvAw6lIH1Fgl1POQHo+bXXyofvTnAUtPFupXtQ4Jl
bScMdTlpAoGBAOKdnfisy4mEkxrW8y8ukLzy6epWCB2AUV2fC892vl8DEdDaSliZ
QviaPBX3TlnveLhaA53yKTeTuO/BAxg63TEtWZA/lcut0Ga6rq5AsT6MvCssWb9D
rXQOXAHkXTIpnxcCLY06EB/lynjXikIWS/m9Wxvip1qI5stMkv/ocECTAoGBAM4s
vCzETFtA3LhuN6zrZCDQerWa/bSyQJftPvRdIlHidv6yaGreQCOd93oYwM9xBuYc
v1fJL8uqp6Ar+Qs3Gw4kBrLBfNi63BT43ogceSVGce5wE8xzUF0XcqscBT3hfj2D
wkQq8zHNBY1GOsOfcqBkOqqUBxwTL7DZ+DhdXJlrAoGBAIfcjUf4eLKCnBscQYHI
/hd53wmR+J2PP7jMUK1Z+HpIAddf9/C0OfWHqnxU31GGA68qsD5yX4mlc9uxsORG
7jO8h5S2ulz5YRcl1vI7cMgaYfnURh4oOgZ5UWoE+mbHk0ydDqg75kzpXIEkYAyN
B5G7l7LZKRJbP1slFoB8X0gnAoGAd+XMCLyfKvItaZOvDQBW2j5jHflkURDYP4HY
eoMu0i/Aw5082+kjo5LZuEds2TYBrRBKteJpyScVFDB+Q+dn9HE+8/VRhTglhIy1
3LGyQdsVpnPHD75/naNlK9y/r5zSrTNSZhIUG4H/GIke42R2ZI/lDg3HlKwTr+US
VLT2hMECgYBDly661SlKV8b14ZlYfnHCbC5feBAMjBDHu+GCaPVDjggECIP6FPSB
zpgfSpYpPfXkiyWj5nMOrWKLmHMZx98TNVfQMbYpDD7J3UKmg2inixb6gqDofeWM
sLM//XFqK0GknWYcNBwDLnN5L1eYMXJpRB5utqI1wm4mOcFe6M1g+Q==
-----END RSA PRIVATE KEY-----
