Certificate:
    Data:
        Version: 3 (0x2)
        Serial Number: 5 (0x5)
        Signature Algorithm: md5WithRSAEncryption
        Issuer: C=US, ST=California, L=San Francisco, O=Makewhatis, OU=koji.makewhatis.com, CN=koji.makewhatis.com
        Validity
            Not Before: Jun  7 02:17:36 2013 GMT
            Not After : Jun  5 02:17:36 2023 GMT
        Subject: C=US, ST=California, O=Makewhatis, OU=kojibuilder1.makewhatis.com, CN=kojibuilder1.makewhatis.com
        Subject Public Key Info:
            Public Key Algorithm: rsaEncryption
                Public-Key: (2048 bit)
                Modulus:
                    00:aa:d7:68:34:a3:2f:d3:01:2e:24:83:3e:59:08:
                    97:d8:bb:71:3a:2f:bf:44:df:42:e7:18:d4:aa:6b:
                    09:bc:3f:e6:07:90:db:b9:69:46:b9:d8:3f:47:21:
                    18:2a:4e:40:da:df:ff:d2:17:9d:e8:5e:08:d7:68:
                    c7:6d:fc:24:03:91:d7:ba:76:27:79:f9:19:f6:62:
                    c8:4e:9d:59:ff:bf:01:47:e8:33:9e:67:29:c0:b0:
                    79:de:16:97:20:c6:51:89:49:88:b3:77:6c:b7:b5:
                    8a:76:01:ed:62:cc:f3:51:1c:3d:e4:9a:56:d7:ff:
                    96:a2:74:d9:25:c4:d1:79:d6:14:97:7e:94:1a:21:
                    ab:29:2d:08:fd:b0:e9:7b:16:74:85:cc:3e:6f:f6:
                    a6:30:c8:20:2b:57:9a:49:fc:c2:d5:d9:02:ac:0b:
                    91:23:92:24:28:19:04:ff:d8:7b:08:f9:86:08:f1:
                    4b:1b:82:2c:9c:80:0e:e5:af:22:ee:50:a2:95:ca:
                    2a:d6:9f:75:53:ba:ed:1b:ae:76:a4:89:1f:9c:2b:
                    62:32:ff:9f:d4:6d:0d:6e:2d:db:b8:70:ba:35:d7:
                    45:02:25:52:e2:2b:1a:f5:2e:0a:1b:99:42:1c:0d:
                    5e:36:20:db:d4:63:50:53:a8:c1:08:5a:0c:c1:3e:
                    32:45
                Exponent: 65537 (0x10001)
        X509v3 extensions:
            X509v3 Basic Constraints:
                CA:FALSE
            Netscape Comment:
                OpenSSL Generated Certificate
            X509v3 Subject Key Identifier:
                27:52:23:BF:AD:7D:A9:65:55:F2:7A:E2:B5:A6:CA:70:DD:5B:C4:85
            X509v3 Authority Key Identifier:
                keyid:68:16:BB:44:8A:51:FC:29:05:FE:24:9C:1C:B5:B2:84:63:13:CB:73
                DirName:/C=US/ST=California/L=San Francisco/O=Makewhatis/OU=koji.makewhatis.com/CN=koji.makewhatis.com
                serial:87:1B:36:45:22:EA:F0:CD

    Signature Algorithm: md5WithRSAEncryption
        4a:ba:20:98:cc:23:b8:09:8d:64:b1:23:74:eb:1f:c6:e1:12:
        01:70:be:b3:61:c7:32:25:ed:71:54:97:31:8a:75:2b:52:74:
        ad:a7:70:af:87:50:af:68:9a:2f:25:76:ee:7b:5c:d8:9c:6e:
        23:47:d7:b0:ca:3d:62:4a:ec:30:ea:66:92:c1:93:2a:39:3b:
        80:dc:46:38:a4:d8:2f:84:52:b4:e2:0e:5e:03:3a:8a:9a:8a:
        92:cb:6a:9a:ca:5f:c8:59:42:20:e5:03:bb:eb:ae:04:a2:bd:
        59:98:05:49:a4:e2:3d:d7:8d:a9:f0:6f:5f:6d:4b:2c:e0:8b:
        78:31:eb:1d:bb:ea:0b:d6:cb:ed:ee:15:be:cc:5b:f8:10:ca:
        1c:eb:14:2b:bf:70:7b:0c:cc:c0:ba:ac:93:d6:c4:85:65:23:
        23:7c:07:a2:d3:32:32:c9:23:3d:cb:8b:70:3a:d4:bd:95:a9:
        55:73:a4:d8:c7:da:22:59:39:46:77:5c:cd:42:f3:ea:b3:8b:
        47:6d:9d:a8:34:a0:0a:32:cb:8f:6c:e2:11:d7:c4:21:09:96:
        05:41:d4:bd:66:fd:4b:44:1c:0f:6b:64:3e:dc:56:fd:7e:21:
        72:2f:f1:90:53:b4:c0:da:a1:86:0d:21:41:17:c2:ea:0d:f8:
        19:b9:15:42
-----BEGIN CERTIFICATE-----
MIIErDCCA5SgAwIBAgIBBTANBgkqhkiG9w0BAQQFADCBizELMAkGA1UEBhMCVVMx
EzARBgNVBAgTCkNhbGlmb3JuaWExFjAUBgNVBAcTDVNhbiBGcmFuY2lzY28xEzAR
BgNVBAoTCk1ha2V3aGF0aXMxHDAaBgNVBAsTE2tvamkubWFrZXdoYXRpcy5jb20x
HDAaBgNVBAMTE2tvamkubWFrZXdoYXRpcy5jb20wHhcNMTMwNjA3MDIxNzM2WhcN
MjMwNjA1MDIxNzM2WjCBgzELMAkGA1UEBhMCVVMxEzARBgNVBAgTCkNhbGlmb3Ju
aWExEzARBgNVBAoTCk1ha2V3aGF0aXMxJDAiBgNVBAsTG2tvamlidWlsZGVyMS5t
YWtld2hhdGlzLmNvbTEkMCIGA1UEAxMba29qaWJ1aWxkZXIxLm1ha2V3aGF0aXMu
Y29tMIIBIjANBgkqhkiG9w0BAQEFAAOCAQ8AMIIBCgKCAQEAqtdoNKMv0wEuJIM+
WQiX2LtxOi+/RN9C5xjUqmsJvD/mB5DbuWlGudg/RyEYKk5A2t//0hed6F4I12jH
bfwkA5HXunYnefkZ9mLITp1Z/78BR+gznmcpwLB53haXIMZRiUmIs3dst7WKdgHt
YszzURw95JpW1/+WonTZJcTRedYUl36UGiGrKS0I/bDpexZ0hcw+b/amMMggK1ea
SfzC1dkCrAuRI5IkKBkE/9h7CPmGCPFLG4IsnIAO5a8i7lCilcoq1p91U7rtG652
pIkfnCtiMv+f1G0Nbi3buHC6NddFAiVS4isa9S4KG5lCHA1eNiDb1GNQU6jBCFoM
wT4yRQIDAQABo4IBHzCCARswCQYDVR0TBAIwADAsBglghkgBhvhCAQ0EHxYdT3Bl
blNTTCBHZW5lcmF0ZWQgQ2VydGlmaWNhdGUwHQYDVR0OBBYEFCdSI7+tfallVfJ6
4rWmynDdW8SFMIHABgNVHSMEgbgwgbWAFGgWu0SKUfwpBf4knBy1soRjE8tzoYGR
pIGOMIGLMQswCQYDVQQGEwJVUzETMBEGA1UECBMKQ2FsaWZvcm5pYTEWMBQGA1UE
BxMNU2FuIEZyYW5jaXNjbzETMBEGA1UEChMKTWFrZXdoYXRpczEcMBoGA1UECxMT
a29qaS5tYWtld2hhdGlzLmNvbTEcMBoGA1UEAxMTa29qaS5tYWtld2hhdGlzLmNv
bYIJAIcbNkUi6vDNMA0GCSqGSIb3DQEBBAUAA4IBAQBKuiCYzCO4CY1ksSN06x/G
4RIBcL6zYccyJe1xVJcxinUrUnStp3Cvh1CvaJovJXbue1zYnG4jR9ewyj1iSuww
6maSwZMqOTuA3EY4pNgvhFK04g5eAzqKmoqSy2qayl/IWUIg5QO7664Eor1ZmAVJ
pOI9142p8G9fbUss4It4Mesdu+oL1svt7hW+zFv4EMoc6xQrv3B7DMzAuqyT1sSF
ZSMjfAei0zIyySM9y4twOtS9lalVc6TYx9oiWTlGd1zNQvPqs4tHbZ2oNKAKMsuP
bOIR18QhCZYFQdS9Zv1LRBwPa2Q+3Fb9fiFyL/GQU7TA2qGGDSFBF8LqDfgZuRVC
-----END CERTIFICATE-----
-----BEGIN RSA PRIVATE KEY-----
MIIEowIBAAKCAQEAqtdoNKMv0wEuJIM+WQiX2LtxOi+/RN9C5xjUqmsJvD/mB5Db
uWlGudg/RyEYKk5A2t//0hed6F4I12jHbfwkA5HXunYnefkZ9mLITp1Z/78BR+gz
nmcpwLB53haXIMZRiUmIs3dst7WKdgHtYszzURw95JpW1/+WonTZJcTRedYUl36U
GiGrKS0I/bDpexZ0hcw+b/amMMggK1eaSfzC1dkCrAuRI5IkKBkE/9h7CPmGCPFL
G4IsnIAO5a8i7lCilcoq1p91U7rtG652pIkfnCtiMv+f1G0Nbi3buHC6NddFAiVS
4isa9S4KG5lCHA1eNiDb1GNQU6jBCFoMwT4yRQIDAQABAoIBAQChcaY79+p90CO2
xX/py0ETwy6g+fYaM5GZqdFuqnAswYWzqKS7dk0r2rsRkKixcfm/3OZ3t3G14Qch
6RZtTVULOotO3dE4ZrquJ3N7Nx+RmwKu3TPKgVrniN3hjh+LDV6ICkFwt265vIj4
M6INN/jHsZSbr25Z+GJ1a065bmE2bBkPE4bPNAjAeuJoCDaSvnnGdLrfjzepw2pg
fL8SVgud3LLJRd1q9b+iIuFZSmEopoYsmnh+EMP2HkMDvhdtisz/NKI+eg9OfGQ+
+wXJDto9g8CBGET9mfsdfYuKYjjlUOwl/KaNrkLMxTlyCweiaB1d9sR4JAGHdANl
kNEP2fcBAoGBANF1nKDorxIlSrPS8V2ATjeGcbCVA4VNfngD+sMad+tx1lCtUzNC
kgLqwvbVLs386+SWcOaEHT4vWPVEnJAmwmJ7TXpyhL+flBexZwV2mVF5stqfpU1r
EuFndW0BRkBrU8leaoV6hLjWU7vNQAorUaITT4ANXxpYmyBGtg5AZUORAoGBANDN
JGB5LZV5huLi+ov74rlZCrAppOh4CKS/g7sheglTFAEFSBaDfHTvvzte4Q49T2Rs
Q/Sm9t70db+5X5Osg0+OAVZh1n+iaWOped5SYCiPG/Zifaneu7Ri8iH/LpAMT/09
WKLefq66TswRlUfS6BSrG/N3nfCFwLce6NT7psF1AoGAbeB/kJ1fMWqknF58xSrI
XTJGs3YICcaUIEseIXjiDX2DCoFR0uMKC0OxkKBWVDJoYFpW0WXenT9jMA6U/r2G
XPkHtMMcRhVlL2SdgW0skmP/4dW7djhECEAohk0T2Dk1E75WrLyPoRK1jB/ohy0g
PqBYpPjeuchfX/gYCrPXKzECgYBlpxnIpfYdSVbz6pETyYNtvP3JGd0hGB8NJffa
CMhC9eFNReb8nvLec0Hkg6KJriuStmq3FvolPVp+Bp+TY29iMb5Q8bzd0pIAZSfh
prUNye5RG04Wf0te3LUI/BUNKBFhNpaKZEvEgQuPqhfFKda3CT7IXznTOSrDfBba
adGbaQKBgGH2o398FSD/HF/4B0xoCoNM+by98YMmK22Zb9v3XekdddRCfFxcJMYJ
WiH0jV1a2HaraUuyaZrVGFzsGZ7DtE+iaIkQkqHeSIsjW9QFOM8Qt7YMyvStIpA4
4zVU8g0+4MzYhWvWv413iZ03cloIKdnq6DLN6kJqr9Mo+tggNmZy
-----END RSA PRIVATE KEY-----
